; Function Attrs: mustprogress uwtable
define internal noundef i32 @_ZN3nixL10childEntryEPv(ptr noundef %0) #6 {
  %2 = getelementptr inbounds i8, ptr %0, i64 16
  %3 = load ptr, ptr %2, align 8
  %.not.i.i = icmp eq ptr %3, null
  br i1 %.not.i.i, label %4, label %_ZNKSt8functionIFvvEEclEv.exit

4:                                                ; preds = %1
  tail call void @_ZSt25__throw_bad_function_callv() #36
  unreachable

_ZNKSt8functionIFvvEEclEv.exit:                   ; preds = %1
  %5 = getelementptr inbounds i8, ptr %0, i64 24
  %6 = load ptr, ptr %5, align 8
  tail call void %6(ptr noundef nonnull align 8 dereferenceable(16) %0)
  ret i32 1
}